target datalayout = "e-m:e-p270:32:32-p271:32:32-p272:64:64-i64:64-i128:128-f80:128-n8:16:32:64-S128"
target triple = "x86_64-pc-linux-gnu"

%"struct.llvm::LaneBitmask" = type { i64 }
%"struct.llvm::rdf::RegisterRef" = type { i32, %"struct.llvm::LaneBitmask" }
%"class.std::set" = type { %"class.std::_Rb_tree" }
%"class.std::_Rb_tree" = type { %"struct.std::_Rb_tree<unsigned int, unsigned int, std::_Identity<unsigned int>, std::less<unsigned int>>::_Rb_tree_impl" }
%"struct.std::_Rb_tree<unsigned int, unsigned int, std::_Identity<unsigned int>, std::less<unsigned int>>::_Rb_tree_impl" = type { [8 x i8], %"struct.std::_Rb_tree_header" }
%"struct.std::_Rb_tree_header" = type { %"struct.std::_Rb_tree_node_base", i64 }
%"struct.std::_Rb_tree_node_base" = type { i32, ptr, ptr, ptr }
%"struct.std::_Rb_tree_const_iterator" = type { ptr }
%"struct.std::_Rb_tree_node" = type <{ %"struct.std::_Rb_tree_node_base", %"struct.__gnu_cxx::__aligned_membuf", [4 x i8] }>
%"struct.__gnu_cxx::__aligned_membuf" = type { [4 x i8] }

; Function Attrs: mustprogress nounwind uwtable
define linkonce_odr hidden void @_ZNSt15__new_allocatorISt13_Rb_tree_nodeIjEED2Ev(ptr noundef nonnull align 1 dereferenceable(1) %0) unnamed_addr #0 comdat align 2 {
  %2 = alloca ptr, align 8
  store ptr %0, ptr %2, align 8
  ret void
}

; Function Attrs: mustprogress nounwind uwtable
define linkonce_odr hidden noundef ptr @_ZNK9__gnu_cxx16__aligned_membufIjE7_M_addrEv(ptr noundef nonnull align 4 dereferenceable(4) %0) #0 comdat align 2 {
  %2 = alloca ptr, align 8
  store ptr %0, ptr %2, align 8
  %3 = load ptr, ptr %2, align 8
  %4 = getelementptr inbounds nuw %"struct.__gnu_cxx::__aligned_membuf", ptr %3, i32 0, i32 0
  ret ptr %4
}

; Function Attrs: mustprogress nounwind uwtable
define linkonce_odr hidden void @_ZNSaISt13_Rb_tree_nodeIjEED2Ev(ptr noundef nonnull align 1 dereferenceable(1) %0) unnamed_addr #0 comdat align 2 {
  %2 = alloca ptr, align 8
  store ptr %0, ptr %2, align 8
  %3 = load ptr, ptr %2, align 8
  call void @_ZNSt15__new_allocatorISt13_Rb_tree_nodeIjEED2Ev(ptr noundef nonnull align 1 dereferenceable(1) %3) #10
  ret void
}

; Function Attrs: mustprogress nounwind uwtable
define linkonce_odr hidden noundef ptr @_ZNKSt8_Rb_treeIjjSt9_IdentityIjESt4lessIjESaIjEE9_M_mbeginEv(ptr noundef nonnull align 8 dereferenceable(48) %0) #0 comdat align 2 {
  %2 = alloca ptr, align 8
  store ptr %0, ptr %2, align 8
  %3 = load ptr, ptr %2, align 8
  %4 = getelementptr inbounds nuw %"class.std::_Rb_tree", ptr %3, i32 0, i32 0
  %5 = getelementptr inbounds i8, ptr %4, i64 8
  %6 = getelementptr inbounds nuw %"struct.std::_Rb_tree_header", ptr %5, i32 0, i32 0
  %7 = getelementptr inbounds nuw %"struct.std::_Rb_tree_node_base", ptr %6, i32 0, i32 1
  %8 = load ptr, ptr %7, align 8
  ret ptr %8
}

; Function Attrs: mustprogress nounwind uwtable
define linkonce_odr hidden noundef ptr @_ZNK9__gnu_cxx16__aligned_membufIjE6_M_ptrEv(ptr noundef nonnull align 4 dereferenceable(4) %0) #0 comdat align 2 {
  %2 = alloca ptr, align 8
  store ptr %0, ptr %2, align 8
  %3 = load ptr, ptr %2, align 8
  %4 = call noundef ptr @_ZNK9__gnu_cxx16__aligned_membufIjE7_M_addrEv(ptr noundef nonnull align 4 dereferenceable(4) %3) #10
  ret ptr %4
}

; Function Attrs: mustprogress nounwind uwtable
define linkonce_odr hidden void @_ZNSt23_Rb_tree_const_iteratorIjEC2EPKSt18_Rb_tree_node_base(ptr noundef nonnull align 8 dereferenceable(8) %0, ptr noundef %1) unnamed_addr #0 comdat align 2 {
  %3 = alloca ptr, align 8
  %4 = alloca ptr, align 8
  store ptr %0, ptr %3, align 8
  store ptr %1, ptr %4, align 8
  %5 = load ptr, ptr %3, align 8
  %6 = getelementptr inbounds nuw %"struct.std::_Rb_tree_const_iterator", ptr %5, i32 0, i32 0
  %7 = load ptr, ptr %4, align 8
  store ptr %7, ptr %6, align 8
  ret void
}

; Function Attrs: mustprogress nounwind uwtable
define linkonce_odr hidden void @_ZNSt8_Rb_treeIjjSt9_IdentityIjESt4lessIjESaIjEE13_Rb_tree_implIS3_Lb1EED2Ev(ptr noundef nonnull align 8 dereferenceable(48) %0) unnamed_addr #0 comdat align 2 {
  %2 = alloca ptr, align 8
  store ptr %0, ptr %2, align 8
  %3 = load ptr, ptr %2, align 8
  call void @_ZNSaISt13_Rb_tree_nodeIjEED2Ev(ptr noundef nonnull align 1 dereferenceable(1) %3) #10
  ret void
}

; Function Attrs: mustprogress nounwind uwtable
define linkonce_odr hidden noundef ptr @_ZNSt8_Rb_treeIjjSt9_IdentityIjESt4lessIjESaIjEE8_M_beginEv(ptr noundef nonnull align 8 dereferenceable(48) %0) #0 comdat align 2 {
  %2 = alloca ptr, align 8
  store ptr %0, ptr %2, align 8
  %3 = load ptr, ptr %2, align 8
  %4 = call noundef ptr @_ZNKSt8_Rb_treeIjjSt9_IdentityIjESt4lessIjESaIjEE9_M_mbeginEv(ptr noundef nonnull align 8 dereferenceable(48) %3) #10
  ret ptr %4
}

; Function Attrs: mustprogress nounwind uwtable
define linkonce_odr hidden noundef ptr @_ZNKSt13_Rb_tree_nodeIjE9_M_valptrEv(ptr noundef nonnull align 8 dereferenceable(36) %0) #0 comdat align 2 {
  %2 = alloca ptr, align 8
  store ptr %0, ptr %2, align 8
  %3 = load ptr, ptr %2, align 8
  %4 = getelementptr inbounds nuw %"struct.std::_Rb_tree_node", ptr %3, i32 0, i32 1
  %5 = call noundef ptr @_ZNK9__gnu_cxx16__aligned_membufIjE6_M_ptrEv(ptr noundef nonnull align 4 dereferenceable(4) %4) #10
  ret ptr %5
}

; Function Attrs: mustprogress nounwind uwtable
define linkonce_odr hidden ptr @_ZNKSt8_Rb_treeIjjSt9_IdentityIjESt4lessIjESaIjEE3endEv(ptr noundef nonnull align 8 dereferenceable(48) %0) #0 comdat align 2 {
  %2 = alloca %"struct.std::_Rb_tree_const_iterator", align 8
  %3 = alloca ptr, align 8
  store ptr %0, ptr %3, align 8
  %4 = load ptr, ptr %3, align 8
  %5 = getelementptr inbounds nuw %"class.std::_Rb_tree", ptr %4, i32 0, i32 0
  %6 = getelementptr inbounds i8, ptr %5, i64 8
  %7 = getelementptr inbounds nuw %"struct.std::_Rb_tree_header", ptr %6, i32 0, i32 0
  call void @_ZNSt23_Rb_tree_const_iteratorIjEC2EPKSt18_Rb_tree_node_base(ptr noundef nonnull align 8 dereferenceable(8) %2, ptr noundef %7) #10
  %8 = getelementptr inbounds nuw %"struct.std::_Rb_tree_const_iterator", ptr %2, i32 0, i32 0
  %9 = load ptr, ptr %8, align 8
  ret ptr %9
}

; Function Attrs: mustprogress nounwind uwtable
define linkonce_odr hidden ptr @_ZNKSt8_Rb_treeIjjSt9_IdentityIjESt4lessIjESaIjEE5beginEv(ptr noundef nonnull align 8 dereferenceable(48) %0) #0 comdat align 2 {
  %2 = alloca %"struct.std::_Rb_tree_const_iterator", align 8
  %3 = alloca ptr, align 8
  store ptr %0, ptr %3, align 8
  %4 = load ptr, ptr %3, align 8
  %5 = getelementptr inbounds nuw %"class.std::_Rb_tree", ptr %4, i32 0, i32 0
  %6 = getelementptr inbounds i8, ptr %5, i64 8
  %7 = getelementptr inbounds nuw %"struct.std::_Rb_tree_header", ptr %6, i32 0, i32 0
  %8 = getelementptr inbounds nuw %"struct.std::_Rb_tree_node_base", ptr %7, i32 0, i32 2
  %9 = load ptr, ptr %8, align 8
  call void @_ZNSt23_Rb_tree_const_iteratorIjEC2EPKSt18_Rb_tree_node_base(ptr noundef nonnull align 8 dereferenceable(8) %2, ptr noundef %9) #10
  %10 = getelementptr inbounds nuw %"struct.std::_Rb_tree_const_iterator", ptr %2, i32 0, i32 0
  %11 = load ptr, ptr %10, align 8
  ret ptr %11
}

; Function Attrs: mustprogress nounwind uwtable
define linkonce_odr hidden void @_ZNSt8_Rb_treeIjjSt9_IdentityIjESt4lessIjESaIjEED2Ev(ptr noundef nonnull align 8 dereferenceable(48) %0) unnamed_addr #0 comdat align 2 {
  %2 = alloca ptr, align 8
  store ptr %0, ptr %2, align 8
  %3 = load ptr, ptr %2, align 8
  %4 = call noundef ptr @_ZNSt8_Rb_treeIjjSt9_IdentityIjESt4lessIjESaIjEE8_M_beginEv(ptr noundef nonnull align 8 dereferenceable(48) %3) #10
  call void @_ZNSt8_Rb_treeIjjSt9_IdentityIjESt4lessIjESaIjEE8_M_eraseEPSt13_Rb_tree_nodeIjE(ptr noundef nonnull align 8 dereferenceable(48) %3, ptr noundef %4)
  %5 = getelementptr inbounds nuw %"class.std::_Rb_tree", ptr %3, i32 0, i32 0
  call void @_ZNSt8_Rb_treeIjjSt9_IdentityIjESt4lessIjESaIjEE13_Rb_tree_implIS3_Lb1EED2Ev(ptr noundef nonnull align 8 dereferenceable(48) %5) #10
  ret void
}

; Function Attrs: mustprogress nounwind uwtable
define linkonce_odr hidden noundef nonnull align 8 dereferenceable(8) ptr @_ZNSt23_Rb_tree_const_iteratorIjEppEv(ptr noundef nonnull align 8 dereferenceable(8) %0) #0 comdat align 2 {
  %2 = alloca ptr, align 8
  store ptr %0, ptr %2, align 8
  %3 = load ptr, ptr %2, align 8
  %4 = getelementptr inbounds nuw %"struct.std::_Rb_tree_const_iterator", ptr %3, i32 0, i32 0
  %5 = load ptr, ptr %4, align 8
  %6 = call noundef ptr @_ZSt18_Rb_tree_incrementPKSt18_Rb_tree_node_base(ptr noundef %5) #14
  %7 = getelementptr inbounds nuw %"struct.std::_Rb_tree_const_iterator", ptr %3, i32 0, i32 0
  store ptr %6, ptr %7, align 8
  ret ptr %3
}

; Function Attrs: mustprogress nounwind uwtable
define linkonce_odr hidden noundef nonnull align 4 dereferenceable(4) ptr @_ZNKSt23_Rb_tree_const_iteratorIjEdeEv(ptr noundef nonnull align 8 dereferenceable(8) %0) #0 comdat align 2 {
  %2 = alloca ptr, align 8
  store ptr %0, ptr %2, align 8
  %3 = load ptr, ptr %2, align 8
  %4 = getelementptr inbounds nuw %"struct.std::_Rb_tree_const_iterator", ptr %3, i32 0, i32 0
  %5 = load ptr, ptr %4, align 8
  %6 = call noundef ptr @_ZNKSt13_Rb_tree_nodeIjE9_M_valptrEv(ptr noundef nonnull align 8 dereferenceable(36) %5)
  ret ptr %6
}

; Function Attrs: mustprogress nounwind uwtable
define linkonce_odr noundef zeroext i1 @_ZStneRKSt23_Rb_tree_const_iteratorIjES2_(ptr noundef nonnull align 8 dereferenceable(8) %0, ptr noundef nonnull align 8 dereferenceable(8) %1) #0 comdat {
  %3 = alloca ptr, align 8
  %4 = alloca ptr, align 8
  store ptr %0, ptr %3, align 8
  store ptr %1, ptr %4, align 8
  %5 = load ptr, ptr %3, align 8
  %6 = getelementptr inbounds nuw %"struct.std::_Rb_tree_const_iterator", ptr %5, i32 0, i32 0
  %7 = load ptr, ptr %6, align 8
  %8 = load ptr, ptr %4, align 8
  %9 = getelementptr inbounds nuw %"struct.std::_Rb_tree_const_iterator", ptr %8, i32 0, i32 0
  %10 = load ptr, ptr %9, align 8
  %11 = icmp ne ptr %7, %10
  ret i1 %11
}

; Function Attrs: mustprogress nounwind uwtable
define linkonce_odr hidden ptr @_ZNKSt3setIjSt4lessIjESaIjEE3endEv(ptr noundef nonnull align 8 dereferenceable(48) %0) #0 comdat align 2 {
  %2 = alloca %"struct.std::_Rb_tree_const_iterator", align 8
  %3 = alloca ptr, align 8
  store ptr %0, ptr %3, align 8
  %4 = load ptr, ptr %3, align 8
  %5 = getelementptr inbounds nuw %"class.std::set", ptr %4, i32 0, i32 0
  %6 = call ptr @_ZNKSt8_Rb_treeIjjSt9_IdentityIjESt4lessIjESaIjEE3endEv(ptr noundef nonnull align 8 dereferenceable(48) %5) #10
  %7 = getelementptr inbounds nuw %"struct.std::_Rb_tree_const_iterator", ptr %2, i32 0, i32 0
  store ptr %6, ptr %7, align 8
  %8 = getelementptr inbounds nuw %"struct.std::_Rb_tree_const_iterator", ptr %2, i32 0, i32 0
  %9 = load ptr, ptr %8, align 8
  ret ptr %9
}

; Function Attrs: mustprogress nounwind uwtable
define linkonce_odr hidden ptr @_ZNKSt3setIjSt4lessIjESaIjEE5beginEv(ptr noundef nonnull align 8 dereferenceable(48) %0) #0 comdat align 2 {
  %2 = alloca %"struct.std::_Rb_tree_const_iterator", align 8
  %3 = alloca ptr, align 8
  store ptr %0, ptr %3, align 8
  %4 = load ptr, ptr %3, align 8
  %5 = getelementptr inbounds nuw %"class.std::set", ptr %4, i32 0, i32 0
  %6 = call ptr @_ZNKSt8_Rb_treeIjjSt9_IdentityIjESt4lessIjESaIjEE5beginEv(ptr noundef nonnull align 8 dereferenceable(48) %5) #10
  %7 = getelementptr inbounds nuw %"struct.std::_Rb_tree_const_iterator", ptr %2, i32 0, i32 0
  store ptr %6, ptr %7, align 8
  %8 = getelementptr inbounds nuw %"struct.std::_Rb_tree_const_iterator", ptr %2, i32 0, i32 0
  %9 = load ptr, ptr %8, align 8
  ret ptr %9
}

; Function Attrs: mustprogress nounwind uwtable
define linkonce_odr hidden void @_ZNSt3setIjSt4lessIjESaIjEED2Ev(ptr noundef nonnull align 8 dereferenceable(48) %0) unnamed_addr #0 comdat align 2 {
  %2 = alloca ptr, align 8
  store ptr %0, ptr %2, align 8
  %3 = load ptr, ptr %2, align 8
  %4 = getelementptr inbounds nuw %"class.std::set", ptr %3, i32 0, i32 0
  call void @_ZNSt8_Rb_treeIjjSt9_IdentityIjESt4lessIjESaIjEED2Ev(ptr noundef nonnull align 8 dereferenceable(48) %4) #10
  ret void
}

; Function Attrs: mustprogress nounwind uwtable
define linkonce_odr noundef zeroext i1 @_ZN4llvm3rdf8disjointIjEEbRKSt3setIT_St4lessIS3_ESaIS3_EES9_(ptr noundef nonnull align 8 dereferenceable(48) %0, ptr noundef nonnull align 8 dereferenceable(48) %1) #0 comdat {
  %3 = alloca i1, align 1
  %4 = alloca ptr, align 8
  %5 = alloca ptr, align 8
  %6 = alloca %"struct.std::_Rb_tree_const_iterator", align 8
  %7 = alloca %"struct.std::_Rb_tree_const_iterator", align 8
  %8 = alloca %"struct.std::_Rb_tree_const_iterator", align 8
  %9 = alloca %"struct.std::_Rb_tree_const_iterator", align 8
  store ptr %0, ptr %4, align 8
  store ptr %1, ptr %5, align 8
  %10 = load ptr, ptr %4, align 8
  %11 = call ptr @_ZNKSt3setIjSt4lessIjESaIjEE5beginEv(ptr noundef nonnull align 8 dereferenceable(48) %10) #10
  %12 = getelementptr inbounds nuw %"struct.std::_Rb_tree_const_iterator", ptr %6, i32 0, i32 0
  store ptr %11, ptr %12, align 8
  %13 = load ptr, ptr %4, align 8
  %14 = call ptr @_ZNKSt3setIjSt4lessIjESaIjEE3endEv(ptr noundef nonnull align 8 dereferenceable(48) %13) #10
  %15 = getelementptr inbounds nuw %"struct.std::_Rb_tree_const_iterator", ptr %7, i32 0, i32 0
  store ptr %14, ptr %15, align 8
  %16 = load ptr, ptr %5, align 8
  %17 = call ptr @_ZNKSt3setIjSt4lessIjESaIjEE5beginEv(ptr noundef nonnull align 8 dereferenceable(48) %16) #10
  %18 = getelementptr inbounds nuw %"struct.std::_Rb_tree_const_iterator", ptr %8, i32 0, i32 0
  store ptr %17, ptr %18, align 8
  %19 = load ptr, ptr %5, align 8
  %20 = call ptr @_ZNKSt3setIjSt4lessIjESaIjEE3endEv(ptr noundef nonnull align 8 dereferenceable(48) %19) #10
  %21 = getelementptr inbounds nuw %"struct.std::_Rb_tree_const_iterator", ptr %9, i32 0, i32 0
  store ptr %20, ptr %21, align 8
  br label %22

22:                                               ; preds = %46, %2
  %23 = call noundef zeroext i1 @_ZStneRKSt23_Rb_tree_const_iteratorIjES2_(ptr noundef nonnull align 8 dereferenceable(8) %6, ptr noundef nonnull align 8 dereferenceable(8) %7) #10
  br i1 %23, label %24, label %26

24:                                               ; preds = %22
  %25 = call noundef zeroext i1 @_ZStneRKSt23_Rb_tree_const_iteratorIjES2_(ptr noundef nonnull align 8 dereferenceable(8) %8, ptr noundef nonnull align 8 dereferenceable(8) %9) #10
  br label %26

26:                                               ; preds = %24, %22
  %27 = phi i1 [ false, %22 ], [ %25, %24 ]
  br i1 %27, label %28, label %47

28:                                               ; preds = %26
  %29 = call noundef nonnull align 4 dereferenceable(4) ptr @_ZNKSt23_Rb_tree_const_iteratorIjEdeEv(ptr noundef nonnull align 8 dereferenceable(8) %6) #10
  %30 = load i32, ptr %29, align 4
  %31 = call noundef nonnull align 4 dereferenceable(4) ptr @_ZNKSt23_Rb_tree_const_iteratorIjEdeEv(ptr noundef nonnull align 8 dereferenceable(8) %8) #10
  %32 = load i32, ptr %31, align 4
  %33 = icmp ult i32 %30, %32
  br i1 %33, label %34, label %36

34:                                               ; preds = %28
  %35 = call noundef nonnull align 8 dereferenceable(8) ptr @_ZNSt23_Rb_tree_const_iteratorIjEppEv(ptr noundef nonnull align 8 dereferenceable(8) %6) #10
  br label %46

36:                                               ; preds = %28
  %37 = call noundef nonnull align 4 dereferenceable(4) ptr @_ZNKSt23_Rb_tree_const_iteratorIjEdeEv(ptr noundef nonnull align 8 dereferenceable(8) %8) #10
  %38 = load i32, ptr %37, align 4
  %39 = call noundef nonnull align 4 dereferenceable(4) ptr @_ZNKSt23_Rb_tree_const_iteratorIjEdeEv(ptr noundef nonnull align 8 dereferenceable(8) %6) #10
  %40 = load i32, ptr %39, align 4
  %41 = icmp ult i32 %38, %40
  br i1 %41, label %42, label %44

42:                                               ; preds = %36
  %43 = call noundef nonnull align 8 dereferenceable(8) ptr @_ZNSt23_Rb_tree_const_iteratorIjEppEv(ptr noundef nonnull align 8 dereferenceable(8) %8) #10
  br label %45

44:                                               ; preds = %36
  store i1 false, ptr %3, align 1
  br label %48

45:                                               ; preds = %42
  br label %46

46:                                               ; preds = %45, %34
  br label %22, !llvm.loop !11

47:                                               ; preds = %26
  store i1 true, ptr %3, align 1
  br label %48

48:                                               ; preds = %47, %44
  %49 = load i1, ptr %3, align 1
  ret i1 %49
}

; Function Attrs: mustprogress nounwind uwtable
define dso_local noundef zeroext i1 @_ZNK4llvm3rdf20PhysicalRegisterInfo5aliasENS0_11RegisterRefES2_(ptr noundef nonnull align 8 dereferenceable(128) %0, i32 %1, i64 %2, i32 %3, i64 %4) #0 align 2 {
  %6 = alloca %"struct.llvm::rdf::RegisterRef", align 8
  %7 = alloca %"struct.llvm::rdf::RegisterRef", align 8
  %8 = alloca ptr, align 8
  %9 = alloca %"class.std::set", align 8
  %10 = alloca %"struct.llvm::rdf::RegisterRef", align 8
  %11 = alloca %"class.std::set", align 8
  %12 = alloca %"struct.llvm::rdf::RegisterRef", align 8
  %13 = getelementptr inbounds nuw { i32, i64 }, ptr %6, i32 0, i32 0
  store i32 %1, ptr %13, align 8
  %14 = getelementptr inbounds nuw { i32, i64 }, ptr %6, i32 0, i32 1
  store i64 %2, ptr %14, align 8
  %15 = getelementptr inbounds nuw { i32, i64 }, ptr %7, i32 0, i32 0
  store i32 %3, ptr %15, align 8
  %16 = getelementptr inbounds nuw { i32, i64 }, ptr %7, i32 0, i32 1
  store i64 %4, ptr %16, align 8
  store ptr %0, ptr %8, align 8
  %17 = load ptr, ptr %8, align 8
  call void @llvm.memcpy.p0.p0.i64(ptr align 8 %10, ptr align 8 %6, i64 16, i1 false)
  %18 = getelementptr inbounds nuw { i32, i64 }, ptr %10, i32 0, i32 0
  %19 = load i32, ptr %18, align 8
  %20 = getelementptr inbounds nuw { i32, i64 }, ptr %10, i32 0, i32 1
  %21 = load i64, ptr %20, align 8
  call void @_ZNK4llvm3rdf20PhysicalRegisterInfo8getUnitsENS0_11RegisterRefE(ptr dead_on_unwind writable sret(%"class.std::set") align 8 %9, ptr noundef nonnull align 8 dereferenceable(128) %17, i32 %19, i64 %21)
  call void @llvm.memcpy.p0.p0.i64(ptr align 8 %12, ptr align 8 %7, i64 16, i1 false)
  %22 = getelementptr inbounds nuw { i32, i64 }, ptr %12, i32 0, i32 0
  %23 = load i32, ptr %22, align 8
  %24 = getelementptr inbounds nuw { i32, i64 }, ptr %12, i32 0, i32 1
  %25 = load i64, ptr %24, align 8
  call void @_ZNK4llvm3rdf20PhysicalRegisterInfo8getUnitsENS0_11RegisterRefE(ptr dead_on_unwind writable sret(%"class.std::set") align 8 %11, ptr noundef nonnull align 8 dereferenceable(128) %17, i32 %23, i64 %25)
  %26 = call noundef zeroext i1 @_ZN4llvm3rdf8disjointIjEEbRKSt3setIT_St4lessIS3_ESaIS3_EES9_(ptr noundef nonnull align 8 dereferenceable(48) %9, ptr noundef nonnull align 8 dereferenceable(48) %11)
  %27 = xor i1 %26, true
  call void @_ZNSt3setIjSt4lessIjESaIjEED2Ev(ptr noundef nonnull align 8 dereferenceable(48) %11) #10
  call void @_ZNSt3setIjSt4lessIjESaIjEED2Ev(ptr noundef nonnull align 8 dereferenceable(48) %9) #10
  ret i1 %27
}