; Function Attrs: mustprogress nounwind uwtable
define dso_local noundef zeroext i1 @_ZNK4llvm3rdf20PhysicalRegisterInfo5aliasENS0_11RegisterRefES2_(ptr nocapture noundef nonnull readonly align 8 dereferenceable(128) %0, i32 %1, i64 %2, i32 %3, i64 %4) local_unnamed_addr #0 align 2 {
  %6 = alloca %"class.std::set", align 8
  %7 = alloca %"class.std::set", align 8
  call void @_ZNK4llvm3rdf20PhysicalRegisterInfo8getUnitsENS0_11RegisterRefE(ptr dead_on_unwind nonnull writable sret(%"class.std::set") align 8 %6, ptr noundef nonnull align 8 dereferenceable(128) %0, i32 %1, i64 %2)
  call void @_ZNK4llvm3rdf20PhysicalRegisterInfo8getUnitsENS0_11RegisterRefE(ptr dead_on_unwind nonnull writable sret(%"class.std::set") align 8 %7, ptr noundef nonnull align 8 dereferenceable(128) %0, i32 %3, i64 %4)
  %8 = getelementptr inbounds i8, ptr %6, i64 24
  %9 = load ptr, ptr %8, align 8
  %10 = getelementptr inbounds i8, ptr %6, i64 8
  %11 = getelementptr inbounds i8, ptr %7, i64 24
  %12 = load ptr, ptr %11, align 8
  %13 = getelementptr inbounds i8, ptr %7, i64 8
  %14 = icmp eq ptr %9, %10
  %15 = icmp eq ptr %12, %13
  %or.cond.not15.i = select i1 %14, i1 true, i1 %15
  br i1 %or.cond.not15.i, label %_ZN4llvm3rdf8disjointIjEEbRKSt3setIT_St4lessIS3_ESaIS3_EES9_.exit, label %.lr.ph.i

.lr.ph.i:                                         ; preds = %5, %27
  %.sroa.010.017.i = phi ptr [ %.sroa.010.1.i, %27 ], [ %9, %5 ]
  %.sroa.05.016.i = phi ptr [ %.sroa.05.1.i, %27 ], [ %12, %5 ]
  %16 = getelementptr inbounds nuw i8, ptr %.sroa.010.017.i, i64 32
  %17 = load i32, ptr %16, align 4
  %18 = getelementptr inbounds nuw i8, ptr %.sroa.05.016.i, i64 32
  %19 = load i32, ptr %18, align 4
  %20 = icmp ult i32 %17, %19
  br i1 %20, label %21, label %23

21:                                               ; preds = %.lr.ph.i
  %22 = call noundef ptr @_ZSt18_Rb_tree_incrementPKSt18_Rb_tree_node_base(ptr noundef nonnull %.sroa.010.017.i) #22
  br label %27

23:                                               ; preds = %.lr.ph.i
  %24 = icmp ult i32 %19, %17
  br i1 %24, label %25, label %_ZN4llvm3rdf8disjointIjEEbRKSt3setIT_St4lessIS3_ESaIS3_EES9_.exit

25:                                               ; preds = %23
  %26 = call noundef ptr @_ZSt18_Rb_tree_incrementPKSt18_Rb_tree_node_base(ptr noundef nonnull %.sroa.05.016.i) #22
  br label %27

27:                                               ; preds = %25, %21
  %.sroa.05.1.i = phi ptr [ %.sroa.05.016.i, %21 ], [ %26, %25 ]
  %.sroa.010.1.i = phi ptr [ %22, %21 ], [ %.sroa.010.017.i, %25 ]
  %28 = icmp eq ptr %.sroa.010.1.i, %10
  %29 = icmp eq ptr %.sroa.05.1.i, %13
  %or.cond.not.i = select i1 %28, i1 true, i1 %29
  br i1 %or.cond.not.i, label %_ZN4llvm3rdf8disjointIjEEbRKSt3setIT_St4lessIS3_ESaIS3_EES9_.exit, label %.lr.ph.i, !llvm.loop !27

_ZN4llvm3rdf8disjointIjEEbRKSt3setIT_St4lessIS3_ESaIS3_EES9_.exit: ; preds = %23, %27, %5
  %30 = phi i1 [ false, %5 ], [ true, %23 ], [ false, %27 ]
  %31 = getelementptr inbounds i8, ptr %7, i64 16
  %32 = load ptr, ptr %31, align 8
  call void @_ZNSt8_Rb_treeIjjSt9_IdentityIjESt4lessIjESaIjEE8_M_eraseEPSt13_Rb_tree_nodeIjE(ptr noundef nonnull align 8 dereferenceable(48) %7, ptr noundef %32)
  %33 = getelementptr inbounds i8, ptr %6, i64 16
  %34 = load ptr, ptr %33, align 8
  call void @_ZNSt8_Rb_treeIjjSt9_IdentityIjESt4lessIjESaIjEE8_M_eraseEPSt13_Rb_tree_nodeIjE(ptr noundef nonnull align 8 dereferenceable(48) %6, ptr noundef %34)
  ret i1 %30
}